target datalayout = "e-m:e-p270:32:32-p271:32:32-p272:64:64-i64:64-i128:128-f80:128-n8:16:32:64-S128"
target triple = "x86_64-pc-linux-gnu"

%struct.part_row_data_t = type { ptr, i32, i32, ptr, i32 }

@.str = private unnamed_addr constant [12 x i8] c"part_data.c\00", align 1
@__func__.part_data_add_job_to_row = private unnamed_addr constant [25 x i8] c"part_data_add_job_to_row\00", align 1

; Function Attrs: nounwind uwtable
define internal void @_reset_part_row_bitmap(ptr noundef %0) #0 {
  %2 = alloca ptr, align 8
  store ptr %0, ptr %2, align 8
  %3 = load ptr, ptr %2, align 8
  %4 = getelementptr inbounds nuw %struct.part_row_data_t, ptr %3, i32 0, i32 3
  %5 = load ptr, ptr %4, align 8
  call void @clear_core_array(ptr noundef %5)
  %6 = load ptr, ptr %2, align 8
  %7 = getelementptr inbounds nuw %struct.part_row_data_t, ptr %6, i32 0, i32 4
  store i32 0, ptr %7, align 8
  ret void
}

; Function Attrs: nounwind uwtable
define dso_local void @part_data_add_job_to_row(ptr noundef %0, ptr noundef %1) #0 {
  %3 = alloca ptr, align 8
  %4 = alloca ptr, align 8
  store ptr %0, ptr %3, align 8
  store ptr %1, ptr %4, align 8
  %5 = load ptr, ptr %4, align 8
  %6 = getelementptr inbounds nuw %struct.part_row_data_t, ptr %5, i32 0, i32 3
  %7 = load ptr, ptr %6, align 8
  %8 = icmp ne ptr %7, null
  br i1 %8, label %9, label %16

9:                                                ; preds = %2
  %10 = load ptr, ptr %4, align 8
  %11 = getelementptr inbounds nuw %struct.part_row_data_t, ptr %10, i32 0, i32 2
  %12 = load i32, ptr %11, align 4
  %13 = icmp eq i32 %12, 0
  br i1 %13, label %14, label %16

14:                                               ; preds = %9
  %15 = load ptr, ptr %4, align 8
  call void @_reset_part_row_bitmap(ptr noundef %15)
  br label %16

16:                                               ; preds = %14, %9, %2
  %17 = load ptr, ptr %3, align 8
  %18 = load ptr, ptr %4, align 8
  call void @job_res_add_cores(ptr noundef %17, ptr noundef %18)
  %19 = load ptr, ptr %4, align 8
  %20 = getelementptr inbounds nuw %struct.part_row_data_t, ptr %19, i32 0, i32 2
  %21 = load i32, ptr %20, align 4
  %22 = load ptr, ptr %4, align 8
  %23 = getelementptr inbounds nuw %struct.part_row_data_t, ptr %22, i32 0, i32 1
  %24 = load i32, ptr %23, align 8
  %25 = icmp uge i32 %21, %24
  br i1 %25, label %26, label %39

26:                                               ; preds = %16
  %27 = load ptr, ptr %4, align 8
  %28 = getelementptr inbounds nuw %struct.part_row_data_t, ptr %27, i32 0, i32 1
  %29 = load i32, ptr %28, align 8
  %30 = add i32 %29, 8
  store i32 %30, ptr %28, align 8
  %31 = load ptr, ptr %4, align 8
  %32 = getelementptr inbounds nuw %struct.part_row_data_t, ptr %31, i32 0, i32 0
  %33 = load ptr, ptr %4, align 8
  %34 = getelementptr inbounds nuw %struct.part_row_data_t, ptr %33, i32 0, i32 1
  %35 = load i32, ptr %34, align 8
  %36 = zext i32 %35 to i64
  %37 = mul i64 %36, 8
  %38 = call ptr @slurm_xrecalloc(ptr noundef %32, i64 noundef 1, i64 noundef %37, i1 noundef zeroext true, i1 noundef zeroext false, ptr noundef @.str, i32 noundef 115, ptr noundef @__func__.part_data_add_job_to_row)
  br label %39

39:                                               ; preds = %26, %16
  %40 = load ptr, ptr %3, align 8
  %41 = load ptr, ptr %4, align 8
  %42 = getelementptr inbounds nuw %struct.part_row_data_t, ptr %41, i32 0, i32 0
  %43 = load ptr, ptr %42, align 8
  %44 = load ptr, ptr %4, align 8
  %45 = getelementptr inbounds nuw %struct.part_row_data_t, ptr %44, i32 0, i32 2
  %46 = load i32, ptr %45, align 4
  %47 = add i32 %46, 1
  store i32 %47, ptr %45, align 4
  %48 = zext i32 %46 to i64
  %49 = getelementptr inbounds nuw ptr, ptr %43, i64 %48
  store ptr %40, ptr %49, align 8
  ret void
}