; Function Attrs: nounwind uwtable
define dso_local void @part_data_add_job_to_row(ptr noundef %0, ptr noundef %1) local_unnamed_addr #0 {
  %3 = getelementptr inbounds nuw i8, ptr %1, i64 16
  %4 = load ptr, ptr %3, align 8
  %.not = icmp eq ptr %4, null
  br i1 %.not, label %11, label %5

5:                                                ; preds = %2
  %6 = getelementptr inbounds nuw i8, ptr %1, i64 12
  %7 = load i32, ptr %6, align 4
  %8 = icmp eq i32 %7, 0
  br i1 %8, label %9, label %11

9:                                                ; preds = %5
  tail call void @clear_core_array(ptr noundef nonnull %4) #8
  %10 = getelementptr inbounds nuw i8, ptr %1, i64 24
  store i32 0, ptr %10, align 8
  br label %11

11:                                               ; preds = %9, %5, %2
  tail call void @job_res_add_cores(ptr noundef %0, ptr noundef nonnull %1) #8
  %12 = getelementptr inbounds nuw i8, ptr %1, i64 12
  %13 = load i32, ptr %12, align 4
  %14 = getelementptr inbounds nuw i8, ptr %1, i64 8
  %15 = load i32, ptr %14, align 8
  %.not13 = icmp ult i32 %13, %15
  br i1 %.not13, label %21, label %16

16:                                               ; preds = %11
  %17 = add i32 %15, 8
  store i32 %17, ptr %14, align 8
  %18 = zext i32 %17 to i64
  %19 = shl nuw nsw i64 %18, 3
  %20 = tail call ptr @slurm_xrecalloc(ptr noundef nonnull %1, i64 noundef 1, i64 noundef %19, i1 noundef zeroext true, i1 noundef zeroext false, ptr noundef nonnull @.str, i32 noundef 115, ptr noundef nonnull @__func__.part_data_add_job_to_row) #8
  %.pre = load i32, ptr %12, align 4
  br label %21

21:                                               ; preds = %16, %11
  %22 = phi i32 [ %.pre, %16 ], [ %13, %11 ]
  %23 = load ptr, ptr %1, align 8
  %24 = add i32 %22, 1
  store i32 %24, ptr %12, align 4
  %25 = zext i32 %22 to i64
  %26 = getelementptr inbounds nuw ptr, ptr %23, i64 %25
  store ptr %0, ptr %26, align 8
  ret void
}